; Function Attrs: mustprogress nofree norecurse nosync nounwind willreturn memory(argmem: write) uwtable
define internal noundef i32 @_ZL26hb_font_get_glyph_name_nilP9hb_font_tPvjPcjS1_(ptr nocapture readnone %0, ptr nocapture readnone %1, i32 %2, ptr nocapture noundef writeonly %3, i32 noundef %4, ptr nocapture readnone %5) #0 {
  %.not = icmp eq i32 %4, 0
  br i1 %.not, label %8, label %7

7:                                                ; preds = %6
  store i8 0, ptr %3, align 1
  br label %8

8:                                                ; preds = %7, %6
  ret i32 0
}